; Function Attrs: nounwind uwtable
define nonnull ptr @l_String_reduceAppend(ptr noundef %0, ptr noundef readnone captures(none) %1, ptr noundef readnone captures(none) %2, ptr noundef readnone captures(none) %3, ptr noundef readnone captures(none) %4, ptr noundef readnone captures(none) %5, ptr noundef readnone captures(none) %6, ptr noundef readnone captures(none) %7, ptr noundef %8) local_unnamed_addr #0 {
  %10 = load ptr, ptr @l_String_reduceAppend___closed__3, align 8, !tbaa !9
  %11 = tail call zeroext i8 @l_Lean_Expr_isAppOfArity(ptr noundef %0, ptr noundef %10, ptr noundef nonnull inttoptr (i64 13 to ptr)) #4
  %12 = icmp eq i8 %11, 0
  br i1 %12, label %13, label %21

13:                                               ; preds = %9
  %14 = load ptr, ptr @l_String_reduceAppend___lambda__1___closed__1, align 8, !tbaa !9
  tail call void @lean_inc_heartbeat() #4
  %15 = tail call noalias ptr @mi_malloc_small(i64 noundef 24) #4
  %16 = icmp eq ptr %15, null
  br i1 %16, label %17, label %lean_alloc_ctor.exit

17:                                               ; preds = %13
  tail call void @lean_internal_panic_out_of_memory() #5
  unreachable

lean_alloc_ctor.exit:                             ; preds = %13
  %18 = getelementptr inbounds nuw i8, ptr %15, i64 4
  store i32 1, ptr %15, align 4, !tbaa !4
  store i32 131096, ptr %18, align 4
  %19 = getelementptr inbounds nuw i8, ptr %15, i64 8
  store ptr %14, ptr %19, align 8, !tbaa !9
  %20 = getelementptr inbounds nuw i8, ptr %15, i64 16
  store ptr %8, ptr %20, align 8, !tbaa !9
  br label %23

21:                                               ; preds = %9
  %22 = tail call ptr @l_String_reduceAppend___lambda__1(ptr noundef %0, ptr nonnull poison, ptr poison, ptr poison, ptr poison, ptr poison, ptr poison, ptr poison, ptr poison, ptr noundef %8)
  br label %23

23:                                               ; preds = %21, %lean_alloc_ctor.exit
  %.0 = phi ptr [ %15, %lean_alloc_ctor.exit ], [ %22, %21 ]
  ret ptr %.0
}